; Function Attrs: mustprogress uwtable
define internal void @_ZN3gmx12_GLOBAL__N_126HelpExportReStructuredText23finishModuleGroupExportEv(ptr nocapture noundef nonnull align 8 dereferenceable(48) %0) unnamed_addr #1 align 2 {
  %2 = getelementptr inbounds i8, ptr %0, i64 32
  %3 = load ptr, ptr %2, align 8
  tail call void @_ZN3gmx10TextWriter5closeEv(ptr noundef nonnull align 8 dereferenceable(8) %3)
  %4 = load ptr, ptr %2, align 8
  store ptr null, ptr %2, align 8
  %.not.i.i = icmp eq ptr %4, null
  br i1 %.not.i.i, label %_ZNSt10unique_ptrIN3gmx10TextWriterESt14default_deleteIS1_EE5resetEPS1_.exit, label %_ZNKSt14default_deleteIN3gmx10TextWriterEEclEPS1_.exit.i.i

_ZNKSt14default_deleteIN3gmx10TextWriterEEclEPS1_.exit.i.i: ; preds = %1
  tail call void @_ZN3gmx10TextWriterD1Ev(ptr noundef nonnull align 8 dereferenceable(8) %4) #19
  tail call void @_ZdlPv(ptr noundef nonnull %4) #20
  br label %_ZNSt10unique_ptrIN3gmx10TextWriterESt14default_deleteIS1_EE5resetEPS1_.exit

_ZNSt10unique_ptrIN3gmx10TextWriterESt14default_deleteIS1_EE5resetEPS1_.exit: ; preds = %1, %_ZNKSt14default_deleteIN3gmx10TextWriterEEclEPS1_.exit.i.i
  %5 = getelementptr inbounds i8, ptr %0, i64 40
  %6 = load ptr, ptr %5, align 8
  tail call void @_ZN3gmx10TextWriter5closeEv(ptr noundef nonnull align 8 dereferenceable(8) %6)
  %7 = load ptr, ptr %5, align 8
  store ptr null, ptr %5, align 8
  %.not.i.i1 = icmp eq ptr %7, null
  br i1 %.not.i.i1, label %_ZNSt10unique_ptrIN3gmx10TextWriterESt14default_deleteIS1_EE5resetEPS1_.exit3, label %_ZNKSt14default_deleteIN3gmx10TextWriterEEclEPS1_.exit.i.i2

_ZNKSt14default_deleteIN3gmx10TextWriterEEclEPS1_.exit.i.i2: ; preds = %_ZNSt10unique_ptrIN3gmx10TextWriterESt14default_deleteIS1_EE5resetEPS1_.exit
  tail call void @_ZN3gmx10TextWriterD1Ev(ptr noundef nonnull align 8 dereferenceable(8) %7) #19
  tail call void @_ZdlPv(ptr noundef nonnull %7) #20
  br label %_ZNSt10unique_ptrIN3gmx10TextWriterESt14default_deleteIS1_EE5resetEPS1_.exit3

_ZNSt10unique_ptrIN3gmx10TextWriterESt14default_deleteIS1_EE5resetEPS1_.exit3: ; preds = %_ZNSt10unique_ptrIN3gmx10TextWriterESt14default_deleteIS1_EE5resetEPS1_.exit, %_ZNKSt14default_deleteIN3gmx10TextWriterEEclEPS1_.exit.i.i2
  ret void
}